(lp0
S'abnormal_valve'
p1
aS'abnormal_valve'
p2
aS'abnormal_valve'
p3
aS'abnormal_valve'
p4
aS'abnormal_valve'
p5
aS'abnormal_valve'
p6
aS'abnormal_valve'
p7
aS'abnormal_valve'
p8
aS'abnormal_valve'
p9
aS'abnormal_valve'
p10
aS'abnormal_valve'
p11
aS'abnormal_valve'
p12
aS'abnormal_valve'
p13
aS'abnormal_valve'
p14
aS'abnormal_valve'
p15
aS'abnormal_valve'
p16
aS'abnormal_valve'
p17
aS'abnormal_valve'
p18
aS'abnormal_valve'
p19
aS'abnormal_valve'
p20
aS'abnormal_valve'
p21
aS'abnormal_valve'
p22
aS'abnormal_valve'
p23
aS'abnormal_valve'
p24
aS'abnormal_valve'
p25
aS'abnormal_valve'
p26
aS'abnormal_valve'
p27
aS'abnormal_valve'
p28
aS'abnormal_valve'
p29
aS'abnormal_valve'
p30
aS'abnormal_valve'
p31
aS'abnormal_valve'
p32
aS'abnormal_valve'
p33
aS'abnormal_valve'
p34
aS'abnormal_valve'
p35
aS'abnormal_valve'
p36
aS'abnormal_valve'
p37
aS'abnormal_valve'
p38
aS'abnormal_valve'
p39
aS'abnormal_valve'
p40
aS'abnormal_valve'
p41
aS'abnormal_valve'
p42
aS'abnormal_valve'
p43
aS'abnormal_valve'
p44
aS'abnormal_valve'
p45
aS'abnormal_valve'
p46
aS'abnormal_valve'
p47
aS'abnormal_valve'
p48
aS'abnormal_valve'
p49
aS'abnormal_valve'
p50
aS'normal_valve'
p51
aS'normal_valve'
p52
aS'normal_valve'
p53
aS'normal_valve'
p54
aS'normal_valve'
p55
aS'normal_valve'
p56
aS'normal_valve'
p57
aS'normal_valve'
p58
aS'normal_valve'
p59
aS'normal_valve'
p60
aS'normal_valve'
p61
aS'normal_valve'
p62
aS'normal_valve'
p63
aS'normal_valve'
p64
aS'normal_valve'
p65
aS'normal_valve'
p66
aS'normal_valve'
p67
aS'normal_valve'
p68
aS'normal_valve'
p69
aS'normal_valve'
p70
aS'normal_valve'
p71
aS'normal_valve'
p72
aS'normal_valve'
p73
aS'normal_valve'
p74
aS'normal_valve'
p75
aS'normal_valve'
p76
aS'normal_valve'
p77
aS'normal_valve'
p78
aS'normal_valve'
p79
aS'normal_valve'
p80
aS'normal_valve'
p81
aS'normal_valve'
p82
aS'normal_valve'
p83
aS'normal_valve'
p84
aS'normal_valve'
p85
aS'normal_valve'
p86
aS'normal_valve'
p87
aS'normal_valve'
p88
aS'normal_valve'
p89
aS'normal_valve'
p90
aS'normal_valve'
p91
aS'normal_valve'
p92
aS'normal_valve'
p93
aS'normal_valve'
p94
aS'normal_valve'
p95
aS'normal_valve'
p96
aS'normal_valve'
p97
aS'normal_valve'
p98
aS'normal_valve'
p99
aS'normal_valve'
p100
a.