(lp0
S'abnormal_valve'
p1
aS'normal_valve'
p2
aS'abnormal_valve'
p3
aS'normal_valve'
p4
aS'abnormal_valve'
p5
aS'normal_valve'
p6
aS'normal_valve'
p7
aS'normal_valve'
p8
aS'normal_valve'
p9
aS'normal_valve'
p10
aS'normal_valve'
p11
aS'abnormal_valve'
p12
aS'abnormal_valve'
p13
aS'normal_valve'
p14
aS'normal_valve'
p15
aS'abnormal_valve'
p16
aS'normal_valve'
p17
aS'abnormal_valve'
p18
aS'abnormal_valve'
p19
aS'normal_valve'
p20
aS'abnormal_valve'
p21
aS'abnormal_valve'
p22
aS'normal_valve'
p23
aS'normal_valve'
p24
aS'normal_valve'
p25
aS'normal_valve'
p26
aS'abnormal_valve'
p27
aS'normal_valve'
p28
aS'abnormal_valve'
p29
aS'abnormal_valve'
p30
aS'abnormal_valve'
p31
aS'normal_valve'
p32
aS'abnormal_valve'
p33
aS'normal_valve'
p34
aS'abnormal_valve'
p35
aS'normal_valve'
p36
aS'normal_valve'
p37
aS'normal_valve'
p38
aS'normal_valve'
p39
aS'abnormal_valve'
p40
aS'abnormal_valve'
p41
aS'abnormal_valve'
p42
aS'normal_valve'
p43
aS'abnormal_valve'
p44
aS'normal_valve'
p45
aS'abnormal_valve'
p46
aS'normal_valve'
p47
aS'normal_valve'
p48
aS'abnormal_valve'
p49
aS'abnormal_valve'
p50
aS'normal_valve'
p51
aS'normal_valve'
p52
aS'abnormal_valve'
p53
aS'abnormal_valve'
p54
aS'abnormal_valve'
p55
aS'normal_valve'
p56
aS'normal_valve'
p57
aS'normal_valve'
p58
aS'abnormal_valve'
p59
aS'abnormal_valve'
p60
aS'abnormal_valve'
p61
aS'normal_valve'
p62
aS'abnormal_valve'
p63
aS'abnormal_valve'
p64
aS'abnormal_valve'
p65
aS'abnormal_valve'
p66
aS'abnormal_valve'
p67
aS'abnormal_valve'
p68
aS'abnormal_valve'
p69
aS'normal_valve'
p70
aS'normal_valve'
p71
aS'normal_valve'
p72
aS'abnormal_valve'
p73
aS'normal_valve'
p74
aS'normal_valve'
p75
aS'normal_valve'
p76
aS'abnormal_valve'
p77
aS'abnormal_valve'
p78
aS'abnormal_valve'
p79
aS'abnormal_valve'
p80
aS'abnormal_valve'
p81
aS'normal_valve'
p82
aS'normal_valve'
p83
aS'abnormal_valve'
p84
aS'normal_valve'
p85
aS'abnormal_valve'
p86
aS'normal_valve'
p87
aS'abnormal_valve'
p88
aS'normal_valve'
p89
aS'normal_valve'
p90
aS'abnormal_valve'
p91
aS'abnormal_valve'
p92
aS'normal_valve'
p93
aS'abnormal_valve'
p94
aS'normal_valve'
p95
aS'abnormal_valve'
p96
aS'normal_valve'
p97
aS'normal_valve'
p98
aS'normal_valve'
p99
aS'abnormal_valve'
p100
aS'abnormal_valve'
p101
aS'abnormal_valve'
p102
aS'normal_valve'
p103
aS'abnormal_valve'
p104
aS'abnormal_valve'
p105
aS'normal_valve'
p106
aS'normal_valve'
p107
aS'normal_valve'
p108
aS'abnormal_valve'
p109
aS'abnormal_valve'
p110
aS'abnormal_valve'
p111
aS'normal_valve'
p112
aS'abnormal_valve'
p113
aS'abnormal_valve'
p114
aS'abnormal_valve'
p115
aS'normal_valve'
p116
aS'abnormal_valve'
p117
aS'abnormal_valve'
p118
aS'normal_valve'
p119
aS'abnormal_valve'
p120
aS'abnormal_valve'
p121
aS'abnormal_valve'
p122
aS'abnormal_valve'
p123
aS'normal_valve'
p124
aS'normal_valve'
p125
aS'abnormal_valve'
p126
aS'normal_valve'
p127
aS'abnormal_valve'
p128
aS'abnormal_valve'
p129
aS'normal_valve'
p130
aS'abnormal_valve'
p131
aS'abnormal_valve'
p132
aS'abnormal_valve'
p133
aS'normal_valve'
p134
aS'normal_valve'
p135
aS'abnormal_valve'
p136
aS'abnormal_valve'
p137
aS'normal_valve'
p138
aS'normal_valve'
p139
aS'normal_valve'
p140
aS'normal_valve'
p141
aS'normal_valve'
p142
aS'abnormal_valve'
p143
aS'normal_valve'
p144
aS'normal_valve'
p145
aS'abnormal_valve'
p146
aS'normal_valve'
p147
aS'abnormal_valve'
p148
aS'normal_valve'
p149
aS'normal_valve'
p150
aS'abnormal_valve'
p151
aS'normal_valve'
p152
aS'normal_valve'
p153
aS'normal_valve'
p154
aS'abnormal_valve'
p155
aS'normal_valve'
p156
aS'normal_valve'
p157
aS'abnormal_valve'
p158
aS'normal_valve'
p159
aS'normal_valve'
p160
aS'normal_valve'
p161
aS'normal_valve'
p162
aS'abnormal_valve'
p163
aS'normal_valve'
p164
aS'abnormal_valve'
p165
aS'abnormal_valve'
p166
aS'abnormal_valve'
p167
aS'normal_valve'
p168
a.